; Function Attrs: nounwind uwtable
define dso_local i64 @bpchartypmodout(ptr noundef readonly captures(none) %0) local_unnamed_addr #0 {
  %2 = getelementptr inbounds nuw i8, ptr %0, i64 32
  %3 = load i64, ptr %2, align 8
  %4 = trunc i64 %3 to i32
  %5 = tail call ptr @palloc(i64 noundef 64) #13
  %6 = icmp sgt i32 %4, 4
  br i1 %6, label %7, label %10

7:                                                ; preds = %1
  %8 = add nsw i32 %4, -4
  %9 = tail call i32 (ptr, i64, ptr, ...) @pg_snprintf(ptr noundef %5, i64 noundef 64, ptr noundef nonnull @.str.10, i32 noundef %8) #13
  br label %anychar_typmodout.exit

10:                                               ; preds = %1
  store i8 0, ptr %5, align 1
  br label %anychar_typmodout.exit

anychar_typmodout.exit:                           ; preds = %7, %10
  %11 = ptrtoint ptr %5 to i64
  ret i64 %11
}